; ModuleID = 'source-C-CXX/16/1487.c'
source_filename = "source-C-CXX/16/1487.c"
target datalayout = "e-m:e-p270:32:32-p271:32:32-p272:64:64-i64:64-f80:128-n8:16:32:64-S128"
target triple = "x86_64-pc-linux-gnu"

@.str = private unnamed_addr constant [3 x i8] c"%s\00", align 1

; Function Attrs: nofree nounwind sspstrong uwtable
define dso_local i32 @main() local_unnamed_addr #0 {
  %1 = alloca [102 x i8], align 16
  %2 = getelementptr inbounds [102 x i8], [102 x i8]* %1, i64 0, i64 0
  call void @llvm.lifetime.start.p0i8(i64 102, i8* nonnull %2) #5
  %3 = call i32 (i8*, ...) @__isoc99_scanf(i8* getelementptr inbounds ([3 x i8], [3 x i8]* @.str, i64 0, i64 0), i8* nonnull %2)
  %4 = icmp eq i32 %3, -1
  br i1 %4, label %38, label %5

5:                                                ; preds = %0, %34
  %6 = call i64 @strlen(i8* noundef nonnull %2) #6
  %7 = trunc i64 %6 to i32
  %8 = call i32 @puts(i8* nonnull %2)
  %9 = icmp sgt i32 %7, 0
  br i1 %9, label %10, label %34

10:                                               ; preds = %5
  %11 = and i64 %6, 4294967295
  br label %12

12:                                               ; preds = %10, %31
  %13 = phi i64 [ 0, %10 ], [ %32, %31 ]
  %14 = getelementptr inbounds [102 x i8], [102 x i8]* %1, i64 0, i64 %13
  %15 = load i8, i8* %14, align 1, !tbaa !5
  switch i8 %15, label %28 [
    i8 40, label %29
    i8 41, label %16
  ]

16:                                               ; preds = %12
  store i8 63, i8* %14, align 1, !tbaa !5
  br label %17

17:                                               ; preds = %21, %16
  %18 = phi i64 [ %19, %21 ], [ %13, %16 ]
  %19 = add nsw i64 %18, -1
  %20 = icmp sgt i64 %18, 0
  br i1 %20, label %21, label %31

21:                                               ; preds = %17
  %22 = getelementptr inbounds [102 x i8], [102 x i8]* %1, i64 0, i64 %19
  %23 = load i8, i8* %22, align 1, !tbaa !5
  %24 = icmp eq i8 %23, 36
  br i1 %24, label %25, label %17, !llvm.loop !8

25:                                               ; preds = %21
  %26 = and i64 %19, 4294967295
  %27 = getelementptr inbounds [102 x i8], [102 x i8]* %1, i64 0, i64 %26
  store i8 32, i8* %27, align 1, !tbaa !5
  br label %29

28:                                               ; preds = %12
  br label %29

29:                                               ; preds = %12, %28, %25
  %30 = phi i8 [ 32, %25 ], [ 32, %28 ], [ 36, %12 ]
  store i8 %30, i8* %14, align 1, !tbaa !5
  br label %31

31:                                               ; preds = %17, %29
  %32 = add nuw nsw i64 %13, 1
  %33 = icmp eq i64 %32, %11
  br i1 %33, label %34, label %12, !llvm.loop !10

34:                                               ; preds = %31, %5
  %35 = call i32 @puts(i8* nonnull %2)
  %36 = call i32 (i8*, ...) @__isoc99_scanf(i8* getelementptr inbounds ([3 x i8], [3 x i8]* @.str, i64 0, i64 0), i8* nonnull %2)
  %37 = icmp eq i32 %36, -1
  br i1 %37, label %38, label %5, !llvm.loop !11

38:                                               ; preds = %34, %0
  call void @llvm.lifetime.end.p0i8(i64 102, i8* nonnull %2) #5
  ret i32 0
}

; Function Attrs: argmemonly mustprogress nofree nosync nounwind willreturn
declare void @llvm.lifetime.start.p0i8(i64 immarg, i8* nocapture) #1

; Function Attrs: nofree nounwind
declare noundef i32 @__isoc99_scanf(i8* nocapture noundef readonly, ...) local_unnamed_addr #2

; Function Attrs: argmemonly mustprogress nofree nounwind readonly willreturn
declare i64 @strlen(i8* nocapture) local_unnamed_addr #3

; Function Attrs: argmemonly mustprogress nofree nosync nounwind willreturn
declare void @llvm.lifetime.end.p0i8(i64 immarg, i8* nocapture) #1

; Function Attrs: nofree nounwind
declare noundef i32 @puts(i8* nocapture noundef readonly) local_unnamed_addr #4


!llvm.module.flags = !{!0, !1, !2, !3}
!llvm.ident = !{!4}

!0 = !{i32 1, !"wchar_size", i32 4}
!1 = !{i32 7, !"PIC Level", i32 2}
!2 = !{i32 7, !"PIE Level", i32 2}
!3 = !{i32 7, !"uwtable", i32 1}
!4 = !{!"clang version 13.0.0"}
!5 = !{!6, !6, i64 0}
!6 = !{!"omnipotent char", !7, i64 0}
!7 = !{!"Simple C/C++ TBAA"}
!8 = distinct !{!8, !9}
!9 = !{!"llvm.loop.mustprogress"}
!10 = distinct !{!10, !9}
!11 = distinct !{!11, !9}
